target datalayout = "e-m:e-p270:32:32-p271:32:32-p272:64:64-i64:64-i128:128-f80:128-n8:16:32:64-S128"
target triple = "x86_64-pc-linux-gnu"

%"class.clang::CodeGen::AggValueSlot" = type <{ %"class.clang::CodeGen::Address", %"class.clang::Qualifiers", i8, [7 x i8] }>
%"class.clang::CodeGen::Address" = type { %"class.llvm::PointerIntPair", ptr, %"class.clang::CharUnits", %"class.clang::CodeGen::CGPointerAuthInfo", ptr }
%"class.llvm::PointerIntPair" = type { %"struct.llvm::detail::PunnedPointer" }
%"struct.llvm::detail::PunnedPointer" = type { [8 x i8] }
%"class.clang::CharUnits" = type { i64 }
%"class.clang::CodeGen::CGPointerAuthInfo" = type { i8, ptr }
%"class.clang::Qualifiers" = type { i64 }
%"class.(anonymous namespace)::AggExprEmitter" = type <{ ptr, ptr, %"class.clang::CodeGen::AggValueSlot", i8, [7 x i8] }>
%"class.clang::CodeGen::RValue" = type <{ %union.anon.1331, i8, [7 x i8] }>
%union.anon.1331 = type { %"class.clang::CodeGen::Address" }

@.str.14 = private unnamed_addr constant [28 x i8] c"aggregate va_arg expression\00", align 1

; Function Attrs: mustprogress nounwind uwtable
define linkonce_odr hidden noundef nonnull align 8 dereferenceable(8) ptr @_ZN4llvm6detail13PunnedPointerIPNS_5ValueEEaSEl(ptr noundef nonnull align 8 dereferenceable(8) %0, i64 noundef %1) #0 comdat align 2 {
  %3 = alloca ptr, align 8
  %4 = alloca i64, align 8
  store ptr %0, ptr %3, align 8
  store i64 %1, ptr %4, align 8
  %5 = load ptr, ptr %3, align 8
  %6 = getelementptr inbounds nuw %"struct.llvm::detail::PunnedPointer", ptr %5, i32 0, i32 0
  %7 = getelementptr inbounds [8 x i8], ptr %6, i64 0, i64 0
  call void @llvm.memcpy.p0.p0.i64(ptr align 8 %7, ptr align 8 %4, i64 8, i1 false)
  ret ptr %5
}

; Function Attrs: mustprogress nounwind uwtable
define linkonce_odr hidden noundef ptr @_ZN4llvm21PointerLikeTypeTraitsIPNS_5ValueEE18getFromVoidPointerEPv(ptr noundef %0) #0 comdat align 2 {
  %2 = alloca ptr, align 8
  store ptr %0, ptr %2, align 8
  %3 = load ptr, ptr %2, align 8
  ret ptr %3
}

; Function Attrs: mustprogress nounwind uwtable
define linkonce_odr hidden noundef i64 @_ZNK4llvm6detail13PunnedPointerIPNS_5ValueEE5asIntEv(ptr noundef nonnull align 8 dereferenceable(8) %0) #0 comdat align 2 {
  %2 = alloca ptr, align 8
  %3 = alloca i64, align 8
  store ptr %0, ptr %2, align 8
  %4 = load ptr, ptr %2, align 8
  store i64 0, ptr %3, align 8
  %5 = getelementptr inbounds nuw %"struct.llvm::detail::PunnedPointer", ptr %4, i32 0, i32 0
  %6 = getelementptr inbounds [8 x i8], ptr %5, i64 0, i64 0
  call void @llvm.memcpy.p0.p0.i64(ptr align 8 %3, ptr align 8 %6, i64 8, i1 false)
  %7 = load i64, ptr %3, align 8
  ret i64 %7
}

; Function Attrs: mustprogress nounwind uwtable
define linkonce_odr hidden void @_ZN4llvm6detail13PunnedPointerIPNS_5ValueEEC2El(ptr noundef nonnull align 8 dereferenceable(8) %0, i64 noundef %1) unnamed_addr #0 comdat align 2 {
  %3 = alloca ptr, align 8
  %4 = alloca i64, align 8
  store ptr %0, ptr %3, align 8
  store i64 %1, ptr %4, align 8
  %5 = load ptr, ptr %3, align 8
  %6 = load i64, ptr %4, align 8
  %7 = call noundef nonnull align 8 dereferenceable(8) ptr @_ZN4llvm6detail13PunnedPointerIPNS_5ValueEEaSEl(ptr noundef nonnull align 8 dereferenceable(8) %5, i64 noundef %6)
  ret void
}

; Function Attrs: mustprogress nounwind uwtable
define linkonce_odr hidden noundef ptr @_ZN4llvm18PointerIntPairInfoIPNS_5ValueELj1ENS_21PointerLikeTypeTraitsIS2_EEE10getPointerEl(i64 noundef %0) #0 comdat align 2 {
  %2 = alloca i64, align 8
  store i64 %0, ptr %2, align 8
  %3 = load i64, ptr %2, align 8
  %4 = and i64 %3, -8
  %5 = inttoptr i64 %4 to ptr
  %6 = call noundef ptr @_ZN4llvm21PointerLikeTypeTraitsIPNS_5ValueEE18getFromVoidPointerEPv(ptr noundef %5)
  ret ptr %6
}

; Function Attrs: mustprogress nounwind uwtable
define linkonce_odr hidden noundef i64 @_ZNK4llvm6detail13PunnedPointerIPNS_5ValueEEcvlEv(ptr noundef nonnull align 8 dereferenceable(8) %0) #0 comdat align 2 {
  %2 = alloca ptr, align 8
  store ptr %0, ptr %2, align 8
  %3 = load ptr, ptr %2, align 8
  %4 = call noundef i64 @_ZNK4llvm6detail13PunnedPointerIPNS_5ValueEE5asIntEv(ptr noundef nonnull align 8 dereferenceable(8) %3)
  ret i64 %4
}

; Function Attrs: mustprogress nounwind uwtable
define linkonce_odr hidden void @_ZN5clang7CodeGen17CGPointerAuthInfoC2Ev(ptr noundef nonnull align 8 dereferenceable(16) %0) unnamed_addr #0 comdat align 2 {
  %2 = alloca ptr, align 8
  store ptr %0, ptr %2, align 8
  %3 = load ptr, ptr %2, align 8
  %4 = load i8, ptr %3, align 8
  %5 = and i8 %4, -4
  %6 = or i8 %5, 0
  store i8 %6, ptr %3, align 8
  %7 = load i8, ptr %3, align 8
  %8 = and i8 %7, -5
  %9 = or i8 %8, 0
  store i8 %9, ptr %3, align 8
  %10 = load i8, ptr %3, align 8
  %11 = and i8 %10, -9
  %12 = or i8 %11, 0
  store i8 %12, ptr %3, align 8
  %13 = load i8, ptr %3, align 8
  %14 = and i8 %13, -49
  %15 = or i8 %14, 0
  store i8 %15, ptr %3, align 8
  %16 = getelementptr inbounds nuw %"class.clang::CodeGen::CGPointerAuthInfo", ptr %3, i32 0, i32 1
  store ptr null, ptr %16, align 8
  ret void
}

; Function Attrs: mustprogress nounwind uwtable
define linkonce_odr hidden void @_ZN5clang9CharUnitsC2Ev(ptr noundef nonnull align 8 dereferenceable(8) %0) unnamed_addr #0 comdat align 2 {
  %2 = alloca ptr, align 8
  store ptr %0, ptr %2, align 8
  %3 = load ptr, ptr %2, align 8
  %4 = getelementptr inbounds nuw %"class.clang::CharUnits", ptr %3, i32 0, i32 0
  store i64 0, ptr %4, align 8
  ret void
}

; Function Attrs: mustprogress nounwind uwtable
define linkonce_odr hidden void @_ZN4llvm14PointerIntPairIPNS_5ValueELj1EbNS_21PointerLikeTypeTraitsIS2_EENS_18PointerIntPairInfoIS2_Lj1ES4_EEEC2Ev(ptr noundef nonnull align 8 dereferenceable(8) %0) unnamed_addr #0 comdat align 2 {
  %2 = alloca ptr, align 8
  store ptr %0, ptr %2, align 8
  %3 = load ptr, ptr %2, align 8
  %4 = getelementptr inbounds nuw %"class.llvm::PointerIntPair", ptr %3, i32 0, i32 0
  call void @_ZN4llvm6detail13PunnedPointerIPNS_5ValueEEC2El(ptr noundef nonnull align 8 dereferenceable(8) %4, i64 noundef 0)
  ret void
}

; Function Attrs: mustprogress nounwind uwtable
define linkonce_odr hidden noundef ptr @_ZNK4llvm14PointerIntPairIPNS_5ValueELj1EbNS_21PointerLikeTypeTraitsIS2_EENS_18PointerIntPairInfoIS2_Lj1ES4_EEE10getPointerEv(ptr noundef nonnull align 8 dereferenceable(8) %0) #0 comdat align 2 {
  %2 = alloca ptr, align 8
  store ptr %0, ptr %2, align 8
  %3 = load ptr, ptr %2, align 8
  %4 = getelementptr inbounds nuw %"class.llvm::PointerIntPair", ptr %3, i32 0, i32 0
  %5 = call noundef i64 @_ZNK4llvm6detail13PunnedPointerIPNS_5ValueEEcvlEv(ptr noundef nonnull align 8 dereferenceable(8) %4)
  %6 = call noundef ptr @_ZN4llvm18PointerIntPairInfoIPNS_5ValueELj1ENS_21PointerLikeTypeTraitsIS2_EEE10getPointerEl(i64 noundef %5)
  ret ptr %6
}

; Function Attrs: mustprogress nounwind uwtable
define linkonce_odr hidden void @_ZN5clang7CodeGen7AddressC2EDn(ptr noundef nonnull align 8 dereferenceable(48) %0, ptr %1) unnamed_addr #0 comdat align 2 {
  %3 = alloca ptr, align 8
  %4 = alloca ptr, align 8
  store ptr %0, ptr %3, align 8
  store ptr %1, ptr %4, align 8
  %5 = load ptr, ptr %3, align 8
  %6 = getelementptr inbounds nuw %"class.clang::CodeGen::Address", ptr %5, i32 0, i32 0
  call void @_ZN4llvm14PointerIntPairIPNS_5ValueELj1EbNS_21PointerLikeTypeTraitsIS2_EENS_18PointerIntPairInfoIS2_Lj1ES4_EEEC2Ev(ptr noundef nonnull align 8 dereferenceable(8) %6)
  %7 = getelementptr inbounds nuw %"class.clang::CodeGen::Address", ptr %5, i32 0, i32 1
  store ptr null, ptr %7, align 8
  %8 = getelementptr inbounds nuw %"class.clang::CodeGen::Address", ptr %5, i32 0, i32 2
  call void @_ZN5clang9CharUnitsC2Ev(ptr noundef nonnull align 8 dereferenceable(8) %8) #10
  %9 = getelementptr inbounds nuw %"class.clang::CodeGen::Address", ptr %5, i32 0, i32 3
  call void @_ZN5clang7CodeGen17CGPointerAuthInfoC2Ev(ptr noundef nonnull align 8 dereferenceable(16) %9)
  %10 = getelementptr inbounds nuw %"class.clang::CodeGen::Address", ptr %5, i32 0, i32 4
  store ptr null, ptr %10, align 8
  ret void
}

; Function Attrs: mustprogress nounwind uwtable
define linkonce_odr hidden noundef zeroext i1 @_ZNK5clang7CodeGen7Address7isValidEv(ptr noundef nonnull align 8 dereferenceable(48) %0) #0 comdat align 2 {
  %2 = alloca ptr, align 8
  store ptr %0, ptr %2, align 8
  %3 = load ptr, ptr %2, align 8
  %4 = getelementptr inbounds nuw %"class.clang::CodeGen::Address", ptr %3, i32 0, i32 0
  %5 = call noundef ptr @_ZNK4llvm14PointerIntPairIPNS_5ValueELj1EbNS_21PointerLikeTypeTraitsIS2_EENS_18PointerIntPairInfoIS2_Lj1ES4_EEE10getPointerEv(ptr noundef nonnull align 8 dereferenceable(8) %4)
  %6 = icmp ne ptr %5, null
  ret i1 %6
}

; Function Attrs: mustprogress nounwind uwtable
define linkonce_odr hidden void @_ZN5clang7CodeGen7Address7invalidEv(ptr dead_on_unwind noalias writable sret(%"class.clang::CodeGen::Address") align 8 %0) #0 comdat align 2 {
  call void @_ZN5clang7CodeGen7AddressC2EDn(ptr noundef nonnull align 8 dereferenceable(48) %0, ptr null)
  ret void
}

; Function Attrs: mustprogress nounwind uwtable
define internal void @_ZN12_GLOBAL__N_114AggExprEmitter14VisitVAArgExprEPN5clang9VAArgExprE(ptr noundef nonnull align 8 dereferenceable(81) %0, ptr noundef %1) #0 align 2 {
  %3 = alloca ptr, align 8
  %4 = alloca ptr, align 8
  %5 = alloca %"class.clang::CodeGen::Address", align 8
  %6 = alloca %"class.clang::CodeGen::AggValueSlot", align 8
  %7 = alloca %"class.clang::CodeGen::RValue", align 8
  store ptr %0, ptr %3, align 8
  store ptr %1, ptr %4, align 8
  %8 = load ptr, ptr %3, align 8
  call void @_ZN5clang7CodeGen7Address7invalidEv(ptr dead_on_unwind writable sret(%"class.clang::CodeGen::Address") align 8 %5)
  %9 = getelementptr inbounds nuw %"class.(anonymous namespace)::AggExprEmitter", ptr %8, i32 0, i32 0
  %10 = load ptr, ptr %9, align 8
  %11 = load ptr, ptr %4, align 8
  %12 = getelementptr inbounds nuw %"class.(anonymous namespace)::AggExprEmitter", ptr %8, i32 0, i32 2
  call void @llvm.memcpy.p0.p0.i64(ptr align 8 %6, ptr align 8 %12, i64 64, i1 false)
  call void @_ZN5clang7CodeGen15CodeGenFunction9EmitVAArgEPNS_9VAArgExprERNS0_7AddressENS0_12AggValueSlotE(ptr dead_on_unwind writable sret(%"class.clang::CodeGen::RValue") align 8 %7, ptr noundef nonnull align 8 dereferenceable(6488) %10, ptr noundef %11, ptr noundef nonnull align 8 dereferenceable(48) %5, ptr noundef byval(%"class.clang::CodeGen::AggValueSlot") align 8 %6)
  %13 = call noundef zeroext i1 @_ZNK5clang7CodeGen7Address7isValidEv(ptr noundef nonnull align 8 dereferenceable(48) %5)
  br i1 %13, label %18, label %14

14:                                               ; preds = %2
  %15 = getelementptr inbounds nuw %"class.(anonymous namespace)::AggExprEmitter", ptr %8, i32 0, i32 0
  %16 = load ptr, ptr %15, align 8
  %17 = load ptr, ptr %4, align 8
  call void @_ZN5clang7CodeGen15CodeGenFunction16ErrorUnsupportedEPKNS_4StmtEPKc(ptr noundef nonnull align 8 dereferenceable(6488) %16, ptr noundef %17, ptr noundef @.str.14)
  br label %18

18:                                               ; preds = %14, %2
  ret void
}