; Function Attrs: mustprogress nounwind uwtable
define internal fastcc void @_ZN12_GLOBAL__N_114AggExprEmitter14VisitVAArgExprEPN5clang9VAArgExprE(ptr nocapture noundef nonnull readonly align 8 dereferenceable(81) %0, ptr noundef %1) unnamed_addr #0 align 2 {
  %3 = alloca %"class.clang::CodeGen::Address", align 8
  %4 = alloca %"class.clang::CodeGen::RValue", align 8
  %5 = getelementptr inbounds i8, ptr %3, i64 32
  call void @llvm.memset.p0.i64(ptr noundef nonnull align 8 dereferenceable(16) %5, i8 0, i64 16, i1 false), !alias.scope !127
  call void @llvm.memset.p0.i64(ptr noundef nonnull align 8 dereferenceable(25) %3, i8 0, i64 25, i1 false)
  %6 = load ptr, ptr %0, align 8
  %7 = getelementptr inbounds nuw i8, ptr %0, i64 16
  call void @_ZN5clang7CodeGen15CodeGenFunction9EmitVAArgEPNS_9VAArgExprERNS0_7AddressENS0_12AggValueSlotE(ptr dead_on_unwind nonnull writable sret(%"class.clang::CodeGen::RValue") align 8 %4, ptr noundef nonnull align 8 dereferenceable(6488) %6, ptr noundef %1, ptr noundef nonnull align 8 dereferenceable(48) %3, ptr noundef nonnull byval(%"class.clang::CodeGen::AggValueSlot") align 8 %7) #15
  %.0.copyload.i.i.i.i = load i64, ptr %3, align 8
  %8 = icmp ugt i64 %.0.copyload.i.i.i.i, 7
  br i1 %8, label %11, label %9

9:                                                ; preds = %2
  %10 = load ptr, ptr %0, align 8
  call void @_ZN5clang7CodeGen15CodeGenFunction16ErrorUnsupportedEPKNS_4StmtEPKc(ptr noundef nonnull align 8 dereferenceable(6488) %10, ptr noundef %1, ptr noundef nonnull @.str.14) #15
  br label %11

11:                                               ; preds = %9, %2
  ret void
}